target datalayout = "e-m:e-p270:32:32-p271:32:32-p272:64:64-i64:64-i128:128-f80:128-n8:16:32:64-S128"
target triple = "x86_64-pc-linux-gnu"

%struct._dom_lexbor_libxml2_bridge_application_data = type { ptr, ptr, ptr, i64, i64, %struct._dom_line_column_cache, i8 }
%struct._dom_line_column_cache = type { i64, i64, i64 }
%struct.lxb_html_tree_error_t = type { i32, i64, i64, i64 }

@.str.58 = private unnamed_addr constant [54 x i8] c"non-void-html-element-start-tag-with-trailing-solidus\00", align 1
@.str.70 = private unnamed_addr constant [14 x i8] c"unknown error\00", align 1
@.str.71 = private unnamed_addr constant [45 x i8] c"tree error %s in %s, line: %zu, column: %zu\0A\00", align 1
@.str.72 = private unnamed_addr constant [49 x i8] c"tree error %s in %s, line: %zu, column: %zu-%zu\0A\00", align 1
@.str.73 = private unnamed_addr constant [17 x i8] c"unexpected-token\00", align 1
@.str.74 = private unnamed_addr constant [24 x i8] c"unexpected-closed-token\00", align 1
@.str.75 = private unnamed_addr constant [15 x i8] c"null-character\00", align 1
@.str.76 = private unnamed_addr constant [27 x i8] c"unexpected-character-token\00", align 1
@.str.77 = private unnamed_addr constant [33 x i8] c"unexpected-token-in-initial-mode\00", align 1
@.str.78 = private unnamed_addr constant [34 x i8] c"bad-doctype-token-in-initial-mode\00", align 1
@.str.79 = private unnamed_addr constant [34 x i8] c"doctype-token-in-before-html-mode\00", align 1
@.str.80 = private unnamed_addr constant [44 x i8] c"unexpected-closed-token-in-before-html-mode\00", align 1
@.str.81 = private unnamed_addr constant [34 x i8] c"doctype-token-in-before-head-mode\00", align 1
@.str.82 = private unnamed_addr constant [44 x i8] c"unexpected-closed_token-in-before-head-mode\00", align 1
@.str.83 = private unnamed_addr constant [27 x i8] c"doctype-token-in-head-mode\00", align 1
@.str.84 = private unnamed_addr constant [24 x i8] c"head-token-in-head-mode\00", align 1
@.str.85 = private unnamed_addr constant [37 x i8] c"unexpected-closed-token-in-head-mode\00", align 1
@.str.86 = private unnamed_addr constant [51 x i8] c"template-closed-token-without-opening-in-head-mode\00", align 1
@.str.87 = private unnamed_addr constant [45 x i8] c"template-element-is-not-current-in-head-mode\00", align 1
@.str.88 = private unnamed_addr constant [36 x i8] c"doctype-token-in-head-noscript-mode\00", align 1
@.str.89 = private unnamed_addr constant [30 x i8] c"doctype-token-after-head-mode\00", align 1
@.str.90 = private unnamed_addr constant [27 x i8] c"head-token-after-head-mode\00", align 1
@.str.91 = private unnamed_addr constant [27 x i8] c"doctype-token-in-body-mode\00", align 1
@.str.92 = private unnamed_addr constant [34 x i8] c"bad-ending-open-elements-is-wrong\00", align 1
@.str.93 = private unnamed_addr constant [23 x i8] c"open-elements-is-wrong\00", align 1
@.str.94 = private unnamed_addr constant [42 x i8] c"unexpected-element-in-open-elements-stack\00", align 1
@.str.95 = private unnamed_addr constant [39 x i8] c"missing-element-in-open-elements-stack\00", align 1
@.str.96 = private unnamed_addr constant [25 x i8] c"no-body-element-in-scope\00", align 1
@.str.97 = private unnamed_addr constant [25 x i8] c"missing-element-in-scope\00", align 1
@.str.98 = private unnamed_addr constant [28 x i8] c"unexpected-element-in-scope\00", align 1
@.str.99 = private unnamed_addr constant [46 x i8] c"unexpected-element-in-active-formatting-stack\00", align 1
@.str.100 = private unnamed_addr constant [23 x i8] c"unexpected-end-of-file\00", align 1
@.str.101 = private unnamed_addr constant [25 x i8] c"characters-in-table-text\00", align 1
@.str.102 = private unnamed_addr constant [28 x i8] c"doctype-token-in-table-mode\00", align 1
@.str.103 = private unnamed_addr constant [29 x i8] c"doctype-token-in-select-mode\00", align 1
@.str.104 = private unnamed_addr constant [30 x i8] c"doctype-token-after-body-mode\00", align 1
@.str.105 = private unnamed_addr constant [31 x i8] c"doctype-token-in-frameset-mode\00", align 1
@.str.106 = private unnamed_addr constant [34 x i8] c"doctype-token-after-frameset-mode\00", align 1
@.str.107 = private unnamed_addr constant [35 x i8] c"doctype-token-foreign-content-mode\00", align 1

; Function Attrs: nounwind uwtable
define internal ptr @dom_lexbor_tree_error_code_to_string(i32 noundef %0) #0 {
  %2 = alloca ptr, align 8
  %3 = alloca i32, align 4
  store i32 %0, ptr %3, align 4
  %4 = load i32, ptr %3, align 4
  switch i32 %4, label %41 [
    i32 0, label %5
    i32 1, label %6
    i32 2, label %7
    i32 3, label %8
    i32 4, label %9
    i32 5, label %10
    i32 6, label %11
    i32 7, label %12
    i32 8, label %13
    i32 9, label %14
    i32 10, label %15
    i32 11, label %16
    i32 12, label %17
    i32 13, label %18
    i32 14, label %19
    i32 15, label %20
    i32 16, label %21
    i32 17, label %22
    i32 18, label %23
    i32 19, label %24
    i32 20, label %25
    i32 21, label %26
    i32 22, label %27
    i32 23, label %28
    i32 24, label %29
    i32 25, label %30
    i32 26, label %31
    i32 27, label %32
    i32 28, label %33
    i32 29, label %34
    i32 30, label %35
    i32 31, label %36
    i32 32, label %37
    i32 33, label %38
    i32 34, label %39
    i32 35, label %40
  ]

5:                                                ; preds = %1
  store ptr @.str.73, ptr %2, align 8
  br label %42

6:                                                ; preds = %1
  store ptr @.str.74, ptr %2, align 8
  br label %42

7:                                                ; preds = %1
  store ptr @.str.75, ptr %2, align 8
  br label %42

8:                                                ; preds = %1
  store ptr @.str.76, ptr %2, align 8
  br label %42

9:                                                ; preds = %1
  store ptr @.str.77, ptr %2, align 8
  br label %42

10:                                               ; preds = %1
  store ptr @.str.78, ptr %2, align 8
  br label %42

11:                                               ; preds = %1
  store ptr @.str.79, ptr %2, align 8
  br label %42

12:                                               ; preds = %1
  store ptr @.str.80, ptr %2, align 8
  br label %42

13:                                               ; preds = %1
  store ptr @.str.81, ptr %2, align 8
  br label %42

14:                                               ; preds = %1
  store ptr @.str.82, ptr %2, align 8
  br label %42

15:                                               ; preds = %1
  store ptr @.str.83, ptr %2, align 8
  br label %42

16:                                               ; preds = %1
  store ptr @.str.58, ptr %2, align 8
  br label %42

17:                                               ; preds = %1
  store ptr @.str.84, ptr %2, align 8
  br label %42

18:                                               ; preds = %1
  store ptr @.str.85, ptr %2, align 8
  br label %42

19:                                               ; preds = %1
  store ptr @.str.86, ptr %2, align 8
  br label %42

20:                                               ; preds = %1
  store ptr @.str.87, ptr %2, align 8
  br label %42

21:                                               ; preds = %1
  store ptr @.str.88, ptr %2, align 8
  br label %42

22:                                               ; preds = %1
  store ptr @.str.89, ptr %2, align 8
  br label %42

23:                                               ; preds = %1
  store ptr @.str.90, ptr %2, align 8
  br label %42

24:                                               ; preds = %1
  store ptr @.str.91, ptr %2, align 8
  br label %42

25:                                               ; preds = %1
  store ptr @.str.92, ptr %2, align 8
  br label %42

26:                                               ; preds = %1
  store ptr @.str.93, ptr %2, align 8
  br label %42

27:                                               ; preds = %1
  store ptr @.str.94, ptr %2, align 8
  br label %42

28:                                               ; preds = %1
  store ptr @.str.95, ptr %2, align 8
  br label %42

29:                                               ; preds = %1
  store ptr @.str.96, ptr %2, align 8
  br label %42

30:                                               ; preds = %1
  store ptr @.str.97, ptr %2, align 8
  br label %42

31:                                               ; preds = %1
  store ptr @.str.98, ptr %2, align 8
  br label %42

32:                                               ; preds = %1
  store ptr @.str.99, ptr %2, align 8
  br label %42

33:                                               ; preds = %1
  store ptr @.str.100, ptr %2, align 8
  br label %42

34:                                               ; preds = %1
  store ptr @.str.101, ptr %2, align 8
  br label %42

35:                                               ; preds = %1
  store ptr @.str.102, ptr %2, align 8
  br label %42

36:                                               ; preds = %1
  store ptr @.str.103, ptr %2, align 8
  br label %42

37:                                               ; preds = %1
  store ptr @.str.104, ptr %2, align 8
  br label %42

38:                                               ; preds = %1
  store ptr @.str.105, ptr %2, align 8
  br label %42

39:                                               ; preds = %1
  store ptr @.str.106, ptr %2, align 8
  br label %42

40:                                               ; preds = %1
  store ptr @.str.107, ptr %2, align 8
  br label %42

41:                                               ; preds = %1
  store ptr @.str.70, ptr %2, align 8
  br label %42

42:                                               ; preds = %41, %40, %39, %38, %37, %36, %35, %34, %33, %32, %31, %30, %29, %28, %27, %26, %25, %24, %23, %22, %21, %20, %19, %18, %17, %16, %15, %14, %13, %12, %11, %10, %9, %8, %7, %6, %5
  %43 = load ptr, ptr %2, align 8
  ret ptr %43
}

; Function Attrs: nounwind uwtable
define internal void @dom_lexbor_libxml2_bridge_tree_error_reporter(ptr noundef %0, ptr noundef %1, i64 noundef %2, i64 noundef %3, i64 noundef %4) #0 {
  %6 = alloca ptr, align 8
  %7 = alloca ptr, align 8
  %8 = alloca i64, align 8
  %9 = alloca i64, align 8
  %10 = alloca i64, align 8
  %11 = alloca ptr, align 8
  store ptr %0, ptr %6, align 8
  store ptr %1, ptr %7, align 8
  store i64 %2, ptr %8, align 8
  store i64 %3, ptr %9, align 8
  store i64 %4, ptr %10, align 8
  %12 = load ptr, ptr %6, align 8
  store ptr %12, ptr %11, align 8
  %13 = load i64, ptr %8, align 8
  %14 = icmp eq i64 %13, 1
  br i1 %14, label %15, label %26

15:                                               ; preds = %5
  %16 = load ptr, ptr %11, align 8
  %17 = getelementptr inbounds %struct._dom_lexbor_libxml2_bridge_application_data, ptr %16, i32 0, i32 6
  %18 = load i8, ptr %17, align 8
  %19 = trunc i8 %18 to i1
  br i1 %19, label %20, label %26

20:                                               ; preds = %15
  %21 = load ptr, ptr %7, align 8
  %22 = getelementptr inbounds %struct.lxb_html_tree_error_t, ptr %21, i32 0, i32 0
  %23 = load i32, ptr %22, align 8
  %24 = icmp eq i32 %23, 4
  br i1 %24, label %25, label %26

25:                                               ; preds = %20
  br label %72

26:                                               ; preds = %20, %15, %5
  %27 = load i64, ptr %10, align 8
  %28 = icmp ule i64 %27, 1
  %29 = xor i1 %28, true
  %30 = xor i1 %29, true
  %31 = zext i1 %30 to i32
  %32 = sext i32 %31 to i64
  %33 = icmp ne i64 %32, 0
  br i1 %33, label %34, label %51

34:                                               ; preds = %26
  %35 = load ptr, ptr %11, align 8
  %36 = getelementptr inbounds %struct._dom_lexbor_libxml2_bridge_application_data, ptr %35, i32 0, i32 0
  %37 = load ptr, ptr %36, align 8
  %38 = load i64, ptr %8, align 8
  %39 = trunc i64 %38 to i32
  %40 = load i64, ptr %9, align 8
  %41 = trunc i64 %40 to i32
  %42 = load ptr, ptr %7, align 8
  %43 = getelementptr inbounds %struct.lxb_html_tree_error_t, ptr %42, i32 0, i32 0
  %44 = load i32, ptr %43, align 8
  %45 = call ptr @dom_lexbor_tree_error_code_to_string(i32 noundef %44)
  %46 = load ptr, ptr %11, align 8
  %47 = getelementptr inbounds %struct._dom_lexbor_libxml2_bridge_application_data, ptr %46, i32 0, i32 0
  %48 = load ptr, ptr %47, align 8
  %49 = load i64, ptr %8, align 8
  %50 = load i64, ptr %9, align 8
  call void (ptr, i32, i32, ptr, ...) @php_libxml_pretend_ctx_error_ex(ptr noundef %37, i32 noundef %39, i32 noundef %41, ptr noundef @.str.71, ptr noundef %45, ptr noundef %48, i64 noundef %49, i64 noundef %50)
  br label %72

51:                                               ; preds = %26
  %52 = load ptr, ptr %11, align 8
  %53 = getelementptr inbounds %struct._dom_lexbor_libxml2_bridge_application_data, ptr %52, i32 0, i32 0
  %54 = load ptr, ptr %53, align 8
  %55 = load i64, ptr %8, align 8
  %56 = trunc i64 %55 to i32
  %57 = load i64, ptr %9, align 8
  %58 = trunc i64 %57 to i32
  %59 = load ptr, ptr %7, align 8
  %60 = getelementptr inbounds %struct.lxb_html_tree_error_t, ptr %59, i32 0, i32 0
  %61 = load i32, ptr %60, align 8
  %62 = call ptr @dom_lexbor_tree_error_code_to_string(i32 noundef %61)
  %63 = load ptr, ptr %11, align 8
  %64 = getelementptr inbounds %struct._dom_lexbor_libxml2_bridge_application_data, ptr %63, i32 0, i32 0
  %65 = load ptr, ptr %64, align 8
  %66 = load i64, ptr %8, align 8
  %67 = load i64, ptr %9, align 8
  %68 = load i64, ptr %9, align 8
  %69 = load i64, ptr %10, align 8
  %70 = add i64 %68, %69
  %71 = sub i64 %70, 1
  call void (ptr, i32, i32, ptr, ...) @php_libxml_pretend_ctx_error_ex(ptr noundef %54, i32 noundef %56, i32 noundef %58, ptr noundef @.str.72, ptr noundef %62, ptr noundef %65, i64 noundef %66, i64 noundef %67, i64 noundef %71)
  br label %72

72:                                               ; preds = %51, %34, %25
  ret void
}