; Function Attrs: nounwind uwtable
define internal void @dom_lexbor_libxml2_bridge_tree_error_reporter(ptr nocapture noundef readonly %0, ptr nocapture noundef readonly %1, i64 noundef %2, i64 noundef %3, i64 noundef %4) #0 {
  %6 = icmp eq i64 %2, 1
  br i1 %6, label %7, label %14

7:                                                ; preds = %5
  %8 = getelementptr inbounds i8, ptr %0, i64 64
  %9 = load i8, ptr %8, align 8
  %10 = and i8 %9, 1
  %.not = icmp eq i8 %10, 0
  br i1 %.not, label %14, label %11

11:                                               ; preds = %7
  %12 = load i32, ptr %1, align 8
  %13 = icmp eq i32 %12, 4
  br i1 %13, label %27, label %14

14:                                               ; preds = %11, %7, %5
  %15 = icmp ult i64 %4, 2
  %16 = load ptr, ptr %0, align 8
  %17 = trunc i64 %2 to i32
  %18 = trunc i64 %3 to i32
  %19 = load i32, ptr %1, align 8
  %20 = icmp ult i32 %19, 36
  br i1 %15, label %21, label %23

21:                                               ; preds = %14
  br i1 %20, label %switch.lookup, label %dom_lexbor_tree_error_code_to_string.exit

switch.lookup:                                    ; preds = %21
  %22 = zext nneg i32 %19 to i64
  %switch.gep = getelementptr inbounds [36 x ptr], ptr @switch.table.dom_lexbor_libxml2_bridge_tree_error_reporter.5, i64 0, i64 %22
  %switch.load = load ptr, ptr %switch.gep, align 8
  br label %dom_lexbor_tree_error_code_to_string.exit

dom_lexbor_tree_error_code_to_string.exit:        ; preds = %21, %switch.lookup
  %.0.i = phi ptr [ %switch.load, %switch.lookup ], [ @.str.70, %21 ]
  tail call void (ptr, i32, i32, ptr, ...) @php_libxml_pretend_ctx_error_ex(ptr noundef %16, i32 noundef %17, i32 noundef %18, ptr noundef nonnull @.str.71, ptr noundef nonnull %.0.i, ptr noundef %16, i64 noundef %2, i64 noundef %3) #11
  br label %27

23:                                               ; preds = %14
  br i1 %20, label %switch.lookup22, label %dom_lexbor_tree_error_code_to_string.exit21

switch.lookup22:                                  ; preds = %23
  %24 = zext nneg i32 %19 to i64
  %switch.gep23 = getelementptr inbounds [36 x ptr], ptr @switch.table.dom_lexbor_libxml2_bridge_tree_error_reporter.5, i64 0, i64 %24
  %switch.load24 = load ptr, ptr %switch.gep23, align 8
  br label %dom_lexbor_tree_error_code_to_string.exit21

dom_lexbor_tree_error_code_to_string.exit21:      ; preds = %23, %switch.lookup22
  %.0.i20 = phi ptr [ %switch.load24, %switch.lookup22 ], [ @.str.70, %23 ]
  %25 = add i64 %3, -1
  %26 = add i64 %25, %4
  tail call void (ptr, i32, i32, ptr, ...) @php_libxml_pretend_ctx_error_ex(ptr noundef %16, i32 noundef %17, i32 noundef %18, ptr noundef nonnull @.str.72, ptr noundef nonnull %.0.i20, ptr noundef %16, i64 noundef %2, i64 noundef %3, i64 noundef %26) #11
  br label %27

27:                                               ; preds = %11, %dom_lexbor_tree_error_code_to_string.exit21, %dom_lexbor_tree_error_code_to_string.exit
  ret void
}